; Function Attrs: mustprogress uwtable
define void @_ZN14LBMStreamEntryC2EPK12_packet_infomPK25lbm_uim_stream_endpoint_tS5_(ptr noundef nonnull align 8 dereferenceable(88) %0, ptr nocapture noundef readonly %1, i64 noundef %2, ptr noundef %3, ptr noundef %4) unnamed_addr #0 align 2 personality ptr @__gxx_personality_v0 {
  %6 = alloca %class.QString, align 16
  %7 = alloca %class.QString, align 16
  store i64 %2, ptr %0, align 8
  %8 = getelementptr inbounds i8, ptr %0, i64 8
  %9 = getelementptr inbounds i8, ptr %0, i64 32
  %10 = getelementptr inbounds i8, ptr %0, i64 56
  tail call void @llvm.memset.p0.i64(ptr noundef nonnull align 8 dereferenceable(48) %8, i8 0, i64 48, i1 false)
  store i32 -1, ptr %10, align 8
  %11 = getelementptr inbounds i8, ptr %0, i64 60
  tail call void @llvm.memset.p0.i64(ptr noundef nonnull align 4 dereferenceable(28) %11, i8 0, i64 28, i1 false)
  invoke void @_ZN14LBMStreamEntry14formatEndpointEPK12_packet_infoPK25lbm_uim_stream_endpoint_t(ptr dead_on_unwind nonnull writable sret(%class.QString) align 8 %6, ptr nonnull align 8 poison, ptr noundef %1, ptr noundef %3)
          to label %12 unwind label %38

12:                                               ; preds = %5
  %13 = load ptr, ptr %8, align 8
  %14 = getelementptr inbounds i8, ptr %0, i64 16
  %15 = getelementptr inbounds i8, ptr %6, i64 8
  %16 = load ptr, ptr %14, align 8
  %17 = load <2 x ptr>, ptr %6, align 16
  store ptr %13, ptr %6, align 16
  store <2 x ptr> %17, ptr %8, align 8
  store ptr %16, ptr %15, align 8
  %18 = getelementptr inbounds i8, ptr %0, i64 24
  %19 = getelementptr inbounds i8, ptr %6, i64 16
  %20 = load i64, ptr %18, align 8
  %21 = load i64, ptr %19, align 16
  store i64 %21, ptr %18, align 8
  store i64 %20, ptr %19, align 16
  %.not.i.i.i = icmp eq ptr %13, null
  br i1 %.not.i.i.i, label %_ZN7QStringD2Ev.exit, label %_ZN17QArrayDataPointerIDsE5derefEv.exit.i.i

_ZN17QArrayDataPointerIDsE5derefEv.exit.i.i:      ; preds = %12
  %22 = atomicrmw sub ptr %13, i32 1 seq_cst, align 4
  %.not.i.i = icmp eq i32 %22, 1
  br i1 %.not.i.i, label %23, label %_ZN7QStringD2Ev.exit

23:                                               ; preds = %_ZN17QArrayDataPointerIDsE5derefEv.exit.i.i
  %24 = load ptr, ptr %6, align 16
  call void @_ZN10QArrayData10deallocateEPS_xx(ptr noundef %24, i64 noundef 2, i64 noundef 8) #16
  br label %_ZN7QStringD2Ev.exit

_ZN7QStringD2Ev.exit:                             ; preds = %12, %_ZN17QArrayDataPointerIDsE5derefEv.exit.i.i, %23
  invoke void @_ZN14LBMStreamEntry14formatEndpointEPK12_packet_infoPK25lbm_uim_stream_endpoint_t(ptr dead_on_unwind nonnull writable sret(%class.QString) align 8 %7, ptr nonnull align 8 poison, ptr noundef %1, ptr noundef %4)
          to label %25 unwind label %38

25:                                               ; preds = %_ZN7QStringD2Ev.exit
  %26 = load ptr, ptr %9, align 8
  %27 = getelementptr inbounds i8, ptr %0, i64 40
  %28 = getelementptr inbounds i8, ptr %7, i64 8
  %29 = load ptr, ptr %27, align 8
  %30 = load <2 x ptr>, ptr %7, align 16
  store ptr %26, ptr %7, align 16
  store <2 x ptr> %30, ptr %9, align 8
  store ptr %29, ptr %28, align 8
  %31 = getelementptr inbounds i8, ptr %0, i64 48
  %32 = getelementptr inbounds i8, ptr %7, i64 16
  %33 = load i64, ptr %31, align 8
  %34 = load i64, ptr %32, align 16
  store i64 %34, ptr %31, align 8
  store i64 %33, ptr %32, align 16
  %.not.i.i.i7 = icmp eq ptr %26, null
  br i1 %.not.i.i.i7, label %_ZN7QStringD2Ev.exit10, label %_ZN17QArrayDataPointerIDsE5derefEv.exit.i.i8

_ZN17QArrayDataPointerIDsE5derefEv.exit.i.i8:     ; preds = %25
  %35 = atomicrmw sub ptr %26, i32 1 seq_cst, align 4
  %.not.i.i9 = icmp eq i32 %35, 1
  br i1 %.not.i.i9, label %36, label %_ZN7QStringD2Ev.exit10

36:                                               ; preds = %_ZN17QArrayDataPointerIDsE5derefEv.exit.i.i8
  %37 = load ptr, ptr %7, align 16
  call void @_ZN10QArrayData10deallocateEPS_xx(ptr noundef %37, i64 noundef 2, i64 noundef 8) #16
  br label %_ZN7QStringD2Ev.exit10

_ZN7QStringD2Ev.exit10:                           ; preds = %25, %_ZN17QArrayDataPointerIDsE5derefEv.exit.i.i8, %36
  ret void

38:                                               ; preds = %_ZN7QStringD2Ev.exit, %5
  %39 = landingpad { ptr, i32 }
          cleanup
  %40 = getelementptr inbounds i8, ptr %0, i64 80
  call void @_ZN4QMapIjP17LBMSubstreamEntryED2Ev(ptr noundef nonnull align 8 dereferenceable(8) %40) #16
  call void @_ZN7QStringD2Ev(ptr noundef nonnull align 8 dereferenceable(24) %9) #16
  call void @_ZN7QStringD2Ev(ptr noundef nonnull align 8 dereferenceable(24) %8) #16
  resume { ptr, i32 } %39
}